; ModuleID = '16/278.c'
source_filename = "16/278.c"
target datalayout = "e-m:e-p270:32:32-p271:32:32-p272:64:64-i64:64-f80:128-n8:16:32:64-S128"
target triple = "x86_64-pc-linux-gnu"

@.str = private unnamed_addr constant [3 x i8] c"%d\00", align 1
@.str.1 = private unnamed_addr constant [2 x i8] c"0\00", align 1
@.str.2 = private unnamed_addr constant [2 x i8] c"\0A\00", align 1

; Function Attrs: noinline nounwind uwtable
define dso_local void @main() #0 {
  %1 = alloca i32, align 4
  %2 = alloca i32, align 4
  %3 = alloca i32, align 4
  %4 = alloca i32, align 4
  %5 = call i32 (i8*, ...) @__isoc99_scanf(i8* getelementptr inbounds ([3 x i8], [3 x i8]* @.str, i64 0, i64 0), i32* %1)
  %6 = load i32, i32* %1, align 4
  store i32 %6, i32* %2, align 4
  %7 = load i32, i32* %1, align 4
  %8 = icmp ne i32 %7, 0
  br i1 %8, label %9, label %38

9:                                                ; preds = %0
  br label %10

10:                                               ; preds = %29, %9
  %11 = load i32, i32* %2, align 4
  %12 = srem i32 %11, 10
  %13 = load i32, i32* %2, align 4
  %14 = sub nsw i32 %12, %13
  %15 = icmp ne i32 %14, 0
  br i1 %15, label %27, label %16

16:                                               ; preds = %10
  %17 = load i32, i32* %2, align 4
  %18 = srem i32 %17, 10
  %19 = load i32, i32* %2, align 4
  %20 = sub nsw i32 %18, %19
  %21 = icmp eq i32 %20, 0
  br i1 %21, label %22, label %25

22:                                               ; preds = %16
  %23 = load i32, i32* %4, align 4
  %24 = icmp sge i32 %23, 10
  br label %25

25:                                               ; preds = %22, %16
  %26 = phi i1 [ false, %16 ], [ %24, %22 ]
  br label %27

27:                                               ; preds = %25, %10
  %28 = phi i1 [ true, %10 ], [ %26, %25 ]
  br i1 %28, label %29, label %37

29:                                               ; preds = %27
  %30 = load i32, i32* %2, align 4
  %31 = srem i32 %30, 10
  store i32 %31, i32* %3, align 4
  %32 = load i32, i32* %3, align 4
  %33 = call i32 (i8*, ...) @printf(i8* getelementptr inbounds ([3 x i8], [3 x i8]* @.str, i64 0, i64 0), i32 %32)
  %34 = load i32, i32* %2, align 4
  store i32 %34, i32* %4, align 4
  %35 = load i32, i32* %2, align 4
  %36 = sdiv i32 %35, 10
  store i32 %36, i32* %2, align 4
  br label %10

37:                                               ; preds = %27
  br label %40

38:                                               ; preds = %0
  %39 = call i32 (i8*, ...) @printf(i8* getelementptr inbounds ([2 x i8], [2 x i8]* @.str.1, i64 0, i64 0))
  br label %40

40:                                               ; preds = %38, %37
  %41 = call i32 (i8*, ...) @printf(i8* getelementptr inbounds ([2 x i8], [2 x i8]* @.str.2, i64 0, i64 0))
  ret void
}

declare dso_local i32 @__isoc99_scanf(i8*, ...) #1

declare dso_local i32 @printf(i8*, ...) #1


!llvm.module.flags = !{!0}
!llvm.ident = !{!1}

!0 = !{i32 1, !"wchar_size", i32 4}
!1 = !{!"clang version 10.0.0-4ubuntu1 "}
